target datalayout = "e-m:e-p270:32:32-p271:32:32-p272:64:64-i64:64-i128:128-f80:128-n8:16:32:64-S128"
target triple = "x86_64-pc-linux-gnu"

%"struct.std::pair" = type <{ i64, i8, [7 x i8] }>
%"class.clang::Preprocessor" = type { %"class.llvm::unique_function", %"class.std::shared_ptr", ptr, ptr, ptr, ptr, ptr, ptr, %"class.std::unique_ptr", ptr, ptr, ptr, %"class.llvm::BumpPtrAllocatorImpl", ptr, ptr, ptr, ptr, ptr, ptr, ptr, ptr, ptr, ptr, ptr, ptr, ptr, ptr, ptr, ptr, ptr, ptr, ptr, ptr, ptr, ptr, ptr, ptr, ptr, ptr, ptr, ptr, ptr, ptr, ptr, ptr, ptr, ptr, ptr, ptr, ptr, %"class.clang::SourceLocation", %"class.clang::SourceLocation", i32, %"class.clang::SourceLocation", i32, i32, i16, i8, i8, %"class.clang::IdentifierTable", %"class.clang::SelectorTable", %"class.std::unique_ptr.9", %"class.std::unique_ptr.17", %"class.std::unique_ptr.17", %"class.std::vector", ptr, i8, i32, ptr, ptr, i32, %"class.clang::SourceLocation", %"class.clang::SourceLocation", %"class.clang::SourceLocation", %"class.llvm::SmallVector.25", %"class.llvm::DenseMap", i32, i8, i8, [2 x i8], %"class.clang::Preprocessor::StdCXXImportSeq", %"class.clang::Preprocessor::TrackGMF", %"class.clang::Preprocessor::ModuleDeclSeq", i8, [7 x i8], %"struct.std::pair.33", %"class.clang::SourceLocation", %"class.clang::SourceLocation", i8, ptr, %"class.clang::SourceRange", %"class.clang::CustomizableOptional", %"struct.std::pair.36", i8, i32, i32, i8, i32, %"class.clang::SourceLocation", %"class.clang::Preprocessor::PreambleConditionalStackStore", %"class.std::unique_ptr.44", ptr, %"struct.clang::detail::SearchDirIteratorImpl", %"class.std::unique_ptr.52", ptr, ptr, %"class.std::vector.60", %"class.std::unique_ptr.65", %"class.llvm::SmallVector.73", %"class.llvm::SmallVector.78", %"class.std::map", %"struct.clang::Preprocessor::SubmoduleState", ptr, %"class.llvm::DenseSet", %"class.llvm::SmallSetVector", %"class.llvm::FoldingSet", %"class.llvm::SmallVector.107", %"class.llvm::DenseMap.112", %"class.llvm::SmallDenseSet", %"class.llvm::DenseMap.117", ptr, %"class.llvm::DenseMap.120", i32, i32, i32, i32, i32, i32, i32, i32, i32, i32, i32, i32, i32, i32, i32, i32, %"class.std::__cxx11::basic_string", %"class.clang::FileID", %"class.clang::FileID", i8, i8, i32, [8 x %"class.std::unique_ptr.52"], %"class.llvm::SmallVector.123", %"class.std::vector.128", ptr, %"class.llvm::SmallVector.133", i64, %"class.std::vector.135", %"class.std::vector.140", i8, [7 x i8], %"class.llvm::DenseMap.145", %"class.llvm::DenseMap.148", ptr, ptr, ptr, ptr, ptr, ptr, ptr, ptr, ptr, i8, %"class.clang::SourceLocation", %"class.llvm::SmallVector.151", %struct.anon }
%"class.llvm::unique_function" = type { %"class.llvm::detail::UniqueFunctionBase" }
%"class.llvm::detail::UniqueFunctionBase" = type { %"union.llvm::detail::UniqueFunctionBase<void, const clang::Token &>::StorageUnionT", %"class.llvm::PointerIntPair" }
%"union.llvm::detail::UniqueFunctionBase<void, const clang::Token &>::StorageUnionT" = type { %"struct.llvm::detail::UniqueFunctionBase<void, const clang::Token &>::StorageUnionT::OutOfLineStorageT" }
%"struct.llvm::detail::UniqueFunctionBase<void, const clang::Token &>::StorageUnionT::OutOfLineStorageT" = type { ptr, i64, i64 }
%"class.llvm::PointerIntPair" = type { %"struct.llvm::detail::PunnedPointer" }
%"struct.llvm::detail::PunnedPointer" = type { [8 x i8] }
%"class.std::shared_ptr" = type { %"class.std::__shared_ptr" }
%"class.std::__shared_ptr" = type { ptr, %"class.std::__shared_count" }
%"class.std::__shared_count" = type { ptr }
%"class.std::unique_ptr" = type { %"struct.std::__uniq_ptr_data" }
%"struct.std::__uniq_ptr_data" = type { %"class.std::__uniq_ptr_impl" }
%"class.std::__uniq_ptr_impl" = type { %"class.std::tuple" }
%"class.std::tuple" = type { %"struct.std::_Tuple_impl" }
%"struct.std::_Tuple_impl" = type { %"struct.std::_Head_base.1" }
%"struct.std::_Head_base.1" = type { ptr }
%"class.llvm::BumpPtrAllocatorImpl" = type { ptr, ptr, %"class.llvm::SmallVector", %"class.llvm::SmallVector.3", i64, i64 }
%"class.llvm::SmallVector" = type { %"class.llvm::SmallVectorImpl", %"struct.llvm::SmallVectorStorage" }
%"class.llvm::SmallVectorImpl" = type { %"class.llvm::SmallVectorTemplateBase" }
%"class.llvm::SmallVectorTemplateBase" = type { %"class.llvm::SmallVectorTemplateCommon" }
%"class.llvm::SmallVectorTemplateCommon" = type { %"class.llvm::SmallVectorBase" }
%"class.llvm::SmallVectorBase" = type { ptr, i32, i32 }
%"struct.llvm::SmallVectorStorage" = type { [32 x i8] }
%"class.llvm::SmallVector.3" = type { %"class.llvm::SmallVectorImpl.4" }
%"class.llvm::SmallVectorImpl.4" = type { %"class.llvm::SmallVectorTemplateBase.5" }
%"class.llvm::SmallVectorTemplateBase.5" = type { %"class.llvm::SmallVectorTemplateCommon.6" }
%"class.llvm::SmallVectorTemplateCommon.6" = type { %"class.llvm::SmallVectorBase" }
%"class.clang::IdentifierTable" = type { %"class.llvm::StringMap", ptr }
%"class.llvm::StringMap" = type { %"class.llvm::StringMapImpl", %"class.llvm::detail::AllocatorHolder.8" }
%"class.llvm::StringMapImpl" = type { ptr, i32, i32, i32, i32 }
%"class.llvm::detail::AllocatorHolder.8" = type { %"class.llvm::BumpPtrAllocatorImpl" }
%"class.clang::SelectorTable" = type { ptr }
%"class.std::unique_ptr.9" = type { %"struct.std::__uniq_ptr_data.10" }
%"struct.std::__uniq_ptr_data.10" = type { %"class.std::__uniq_ptr_impl.11" }
%"class.std::__uniq_ptr_impl.11" = type { %"class.std::tuple.12" }
%"class.std::tuple.12" = type { %"struct.std::_Tuple_impl.13" }
%"struct.std::_Tuple_impl.13" = type { %"struct.std::_Head_base.16" }
%"struct.std::_Head_base.16" = type { ptr }
%"class.std::unique_ptr.17" = type { %"struct.std::__uniq_ptr_data.18" }
%"struct.std::__uniq_ptr_data.18" = type { %"class.std::__uniq_ptr_impl.19" }
%"class.std::__uniq_ptr_impl.19" = type { %"class.std::tuple.20" }
%"class.std::tuple.20" = type { %"struct.std::_Tuple_impl.21" }
%"struct.std::_Tuple_impl.21" = type { %"struct.std::_Head_base.24" }
%"struct.std::_Head_base.24" = type { ptr }
%"class.std::vector" = type { %"struct.std::_Vector_base" }
%"struct.std::_Vector_base" = type { %"struct.std::_Vector_base<clang::CommentHandler *, std::allocator<clang::CommentHandler *>>::_Vector_impl" }
%"struct.std::_Vector_base<clang::CommentHandler *, std::allocator<clang::CommentHandler *>>::_Vector_impl" = type { %"struct.std::_Vector_base<clang::CommentHandler *, std::allocator<clang::CommentHandler *>>::_Vector_impl_data" }
%"struct.std::_Vector_base<clang::CommentHandler *, std::allocator<clang::CommentHandler *>>::_Vector_impl_data" = type { ptr, ptr, ptr }
%"class.llvm::SmallVector.25" = type { %"class.llvm::SmallVectorImpl.26", %"struct.llvm::SmallVectorStorage.29" }
%"class.llvm::SmallVectorImpl.26" = type { %"class.llvm::SmallVectorTemplateBase.27" }
%"class.llvm::SmallVectorTemplateBase.27" = type { %"class.llvm::SmallVectorTemplateCommon.28" }
%"class.llvm::SmallVectorTemplateCommon.28" = type { %"class.llvm::SmallVectorBase" }
%"struct.llvm::SmallVectorStorage.29" = type { [32 x i8] }
%"class.llvm::DenseMap" = type <{ ptr, i32, i32, i32, [4 x i8] }>
%"class.clang::Preprocessor::StdCXXImportSeq" = type <{ i32, i8, [3 x i8] }>
%"class.clang::Preprocessor::TrackGMF" = type { i32 }
%"class.clang::Preprocessor::ModuleDeclSeq" = type { i32, %"class.std::__cxx11::basic_string" }
%"struct.std::pair.33" = type <{ ptr, %"class.clang::SourceLocation", [4 x i8] }>
%"class.clang::SourceRange" = type { %"class.clang::SourceLocation", %"class.clang::SourceLocation" }
%"class.clang::CustomizableOptional" = type { %"class.clang::optional_detail::OptionalStorage" }
%"class.clang::optional_detail::OptionalStorage" = type { %"class.clang::FileMgr::MapEntryOptionalStorage" }
%"class.clang::FileMgr::MapEntryOptionalStorage" = type { %"class.clang::DirectoryEntryRef" }
%"class.clang::DirectoryEntryRef" = type { ptr }
%"struct.std::pair.36" = type <{ i32, i8, [3 x i8] }>
%"class.clang::Preprocessor::PreambleConditionalStackStore" = type <{ %"class.std::optional", [4 x i8], %"class.llvm::SmallVector.39", i32, [4 x i8] }>
%"class.std::optional" = type { %"struct.std::_Optional_base" }
%"struct.std::_Optional_base" = type { %"struct.std::_Optional_payload" }
%"struct.std::_Optional_payload" = type { %"struct.std::_Optional_payload_base.base", [3 x i8] }
%"struct.std::_Optional_payload_base.base" = type <{ %"union.std::_Optional_payload_base<clang::Preprocessor::PreambleSkipInfo>::_Storage", i8 }>
%"union.std::_Optional_payload_base<clang::Preprocessor::PreambleSkipInfo>::_Storage" = type { %"struct.clang::Preprocessor::PreambleSkipInfo" }
%"struct.clang::Preprocessor::PreambleSkipInfo" = type { %"class.clang::SourceLocation", %"class.clang::SourceLocation", i8, i8, %"class.clang::SourceLocation" }
%"class.llvm::SmallVector.39" = type { %"class.llvm::SmallVectorImpl.40", %"struct.llvm::SmallVectorStorage.43" }
%"class.llvm::SmallVectorImpl.40" = type { %"class.llvm::SmallVectorTemplateBase.41" }
%"class.llvm::SmallVectorTemplateBase.41" = type { %"class.llvm::SmallVectorTemplateCommon.42" }
%"class.llvm::SmallVectorTemplateCommon.42" = type { %"class.llvm::SmallVectorBase" }
%"struct.llvm::SmallVectorStorage.43" = type { [32 x i8] }
%"class.std::unique_ptr.44" = type { %"struct.std::__uniq_ptr_data.45" }
%"struct.std::__uniq_ptr_data.45" = type { %"class.std::__uniq_ptr_impl.46" }
%"class.std::__uniq_ptr_impl.46" = type { %"class.std::tuple.47" }
%"class.std::tuple.47" = type { %"struct.std::_Tuple_impl.48" }
%"struct.std::_Tuple_impl.48" = type { %"struct.std::_Head_base.51" }
%"struct.std::_Head_base.51" = type { ptr }
%"struct.clang::detail::SearchDirIteratorImpl" = type { ptr, i64 }
%"class.std::unique_ptr.52" = type { %"struct.std::__uniq_ptr_data.53" }
%"struct.std::__uniq_ptr_data.53" = type { %"class.std::__uniq_ptr_impl.54" }
%"class.std::__uniq_ptr_impl.54" = type { %"class.std::tuple.55" }
%"class.std::tuple.55" = type { %"struct.std::_Tuple_impl.56" }
%"struct.std::_Tuple_impl.56" = type { %"struct.std::_Head_base.59" }
%"struct.std::_Head_base.59" = type { ptr }
%"class.std::vector.60" = type { %"struct.std::_Vector_base.61" }
%"struct.std::_Vector_base.61" = type { %"struct.std::_Vector_base<clang::Preprocessor::IncludeStackInfo, std::allocator<clang::Preprocessor::IncludeStackInfo>>::_Vector_impl" }
%"struct.std::_Vector_base<clang::Preprocessor::IncludeStackInfo, std::allocator<clang::Preprocessor::IncludeStackInfo>>::_Vector_impl" = type { %"struct.std::_Vector_base<clang::Preprocessor::IncludeStackInfo, std::allocator<clang::Preprocessor::IncludeStackInfo>>::_Vector_impl_data" }
%"struct.std::_Vector_base<clang::Preprocessor::IncludeStackInfo, std::allocator<clang::Preprocessor::IncludeStackInfo>>::_Vector_impl_data" = type { ptr, ptr, ptr }
%"class.std::unique_ptr.65" = type { %"struct.std::__uniq_ptr_data.66" }
%"struct.std::__uniq_ptr_data.66" = type { %"class.std::__uniq_ptr_impl.67" }
%"class.std::__uniq_ptr_impl.67" = type { %"class.std::tuple.68" }
%"class.std::tuple.68" = type { %"struct.std::_Tuple_impl.69" }
%"struct.std::_Tuple_impl.69" = type { %"struct.std::_Head_base.72" }
%"struct.std::_Head_base.72" = type { ptr }
%"class.llvm::SmallVector.73" = type { %"class.llvm::SmallVectorImpl.74", %"struct.llvm::SmallVectorStorage.77" }
%"class.llvm::SmallVectorImpl.74" = type { %"class.llvm::SmallVectorTemplateBase.75" }
%"class.llvm::SmallVectorTemplateBase.75" = type { %"class.llvm::SmallVectorTemplateCommon.76" }
%"class.llvm::SmallVectorTemplateCommon.76" = type { %"class.llvm::SmallVectorBase" }
%"struct.llvm::SmallVectorStorage.77" = type { [112 x i8] }
%"class.llvm::SmallVector.78" = type { %"class.llvm::SmallVectorImpl.79", %"struct.llvm::SmallVectorStorage.82" }
%"class.llvm::SmallVectorImpl.79" = type { %"class.llvm::SmallVectorTemplateBase.80" }
%"class.llvm::SmallVectorTemplateBase.80" = type { %"class.llvm::SmallVectorTemplateCommon.81" }
%"class.llvm::SmallVectorTemplateCommon.81" = type { %"class.llvm::SmallVectorBase" }
%"struct.llvm::SmallVectorStorage.82" = type { [256 x i8] }
%"class.std::map" = type { %"class.std::_Rb_tree" }
%"class.std::_Rb_tree" = type { %"struct.std::_Rb_tree<clang::Module *, std::pair<clang::Module *const, clang::Preprocessor::SubmoduleState>, std::_Select1st<std::pair<clang::Module *const, clang::Preprocessor::SubmoduleState>>, std::less<clang::Module *>>::_Rb_tree_impl" }
%"struct.std::_Rb_tree<clang::Module *, std::pair<clang::Module *const, clang::Preprocessor::SubmoduleState>, std::_Select1st<std::pair<clang::Module *const, clang::Preprocessor::SubmoduleState>>, std::less<clang::Module *>>::_Rb_tree_impl" = type { [8 x i8], %"struct.std::_Rb_tree_header" }
%"struct.std::_Rb_tree_header" = type { %"struct.std::_Rb_tree_node_base", i64 }
%"struct.std::_Rb_tree_node_base" = type { i32, ptr, ptr, ptr }
%"struct.clang::Preprocessor::SubmoduleState" = type { %"class.llvm::DenseMap.86", %"class.clang::VisibleModuleSet" }
%"class.llvm::DenseMap.86" = type <{ ptr, i32, i32, i32, [4 x i8] }>
%"class.clang::VisibleModuleSet" = type <{ %"class.std::vector.89", i32, [4 x i8] }>
%"class.std::vector.89" = type { %"struct.std::_Vector_base.90" }
%"struct.std::_Vector_base.90" = type { %"struct.std::_Vector_base<clang::SourceLocation, std::allocator<clang::SourceLocation>>::_Vector_impl" }
%"struct.std::_Vector_base<clang::SourceLocation, std::allocator<clang::SourceLocation>>::_Vector_impl" = type { %"struct.std::_Vector_base<clang::SourceLocation, std::allocator<clang::SourceLocation>>::_Vector_impl_data" }
%"struct.std::_Vector_base<clang::SourceLocation, std::allocator<clang::SourceLocation>>::_Vector_impl_data" = type { ptr, ptr, ptr }
%"class.llvm::DenseSet" = type { %"class.llvm::detail::DenseSetImpl" }
%"class.llvm::detail::DenseSetImpl" = type { %"class.llvm::DenseMap.94" }
%"class.llvm::DenseMap.94" = type <{ ptr, i32, i32, i32, [4 x i8] }>
%"class.llvm::SmallSetVector" = type { %"class.llvm::SetVector" }
%"class.llvm::SetVector" = type { %"class.llvm::DenseSet.97", %"class.llvm::SmallVector.102" }
%"class.llvm::DenseSet.97" = type { %"class.llvm::detail::DenseSetImpl.98" }
%"class.llvm::detail::DenseSetImpl.98" = type { %"class.llvm::DenseMap.99" }
%"class.llvm::DenseMap.99" = type <{ ptr, i32, i32, i32, [4 x i8] }>
%"class.llvm::SmallVector.102" = type { %"class.llvm::SmallVectorImpl.103", %"struct.llvm::SmallVectorStorage.106" }
%"class.llvm::SmallVectorImpl.103" = type { %"class.llvm::SmallVectorTemplateBase.104" }
%"class.llvm::SmallVectorTemplateBase.104" = type { %"class.llvm::SmallVectorTemplateCommon.105" }
%"class.llvm::SmallVectorTemplateCommon.105" = type { %"class.llvm::SmallVectorBase" }
%"struct.llvm::SmallVectorStorage.106" = type { [16 x i8] }
%"class.llvm::FoldingSet" = type { %"class.llvm::FoldingSetImpl" }
%"class.llvm::FoldingSetImpl" = type { %"class.llvm::FoldingSetBase" }
%"class.llvm::FoldingSetBase" = type { ptr, i32, i32 }
%"class.llvm::SmallVector.107" = type { %"class.llvm::SmallVectorImpl.108", %"struct.llvm::SmallVectorStorage.111" }
%"class.llvm::SmallVectorImpl.108" = type { %"class.llvm::SmallVectorTemplateBase.109" }
%"class.llvm::SmallVectorTemplateBase.109" = type { %"class.llvm::SmallVectorTemplateCommon.110" }
%"class.llvm::SmallVectorTemplateCommon.110" = type { %"class.llvm::SmallVectorBase" }
%"struct.llvm::SmallVectorStorage.111" = type { [256 x i8] }
%"class.llvm::DenseMap.112" = type <{ ptr, i32, i32, i32, [4 x i8] }>
%"class.llvm::SmallDenseSet" = type { %"class.llvm::detail::DenseSetImpl.115" }
%"class.llvm::detail::DenseSetImpl.115" = type { %"class.llvm::SmallDenseMap" }
%"class.llvm::SmallDenseMap" = type { i32, i32, %"struct.llvm::AlignedCharArrayUnion" }
%"struct.llvm::AlignedCharArrayUnion" = type { [128 x i8] }
%"class.llvm::DenseMap.117" = type <{ ptr, i32, i32, i32, [4 x i8] }>
%"class.llvm::DenseMap.120" = type <{ ptr, i32, i32, i32, [4 x i8] }>
%"class.std::__cxx11::basic_string" = type { %"struct.std::__cxx11::basic_string<char>::_Alloc_hider", i64, %union.anon }
%"struct.std::__cxx11::basic_string<char>::_Alloc_hider" = type { ptr }
%union.anon = type { i64, [8 x i8] }
%"class.clang::FileID" = type { i32 }
%"class.llvm::SmallVector.123" = type { %"class.llvm::SmallVectorImpl.124", %"struct.llvm::SmallVectorStorage.127" }
%"class.llvm::SmallVectorImpl.124" = type { %"class.llvm::SmallVectorTemplateBase.125" }
%"class.llvm::SmallVectorTemplateBase.125" = type { %"class.llvm::SmallVectorTemplateCommon.126" }
%"class.llvm::SmallVectorTemplateCommon.126" = type { %"class.llvm::SmallVectorBase" }
%"struct.llvm::SmallVectorStorage.127" = type { [384 x i8] }
%"class.std::vector.128" = type { %"struct.std::_Vector_base.129" }
%"struct.std::_Vector_base.129" = type { %"struct.std::_Vector_base<std::pair<clang::TokenLexer *, unsigned long>, std::allocator<std::pair<clang::TokenLexer *, unsigned long>>>::_Vector_impl" }
%"struct.std::_Vector_base<std::pair<clang::TokenLexer *, unsigned long>, std::allocator<std::pair<clang::TokenLexer *, unsigned long>>>::_Vector_impl" = type { %"struct.std::_Vector_base<std::pair<clang::TokenLexer *, unsigned long>, std::allocator<std::pair<clang::TokenLexer *, unsigned long>>>::_Vector_impl_data" }
%"struct.std::_Vector_base<std::pair<clang::TokenLexer *, unsigned long>, std::allocator<std::pair<clang::TokenLexer *, unsigned long>>>::_Vector_impl_data" = type { ptr, ptr, ptr }
%"class.llvm::SmallVector.133" = type { %"class.llvm::SmallVectorImpl.124", %"struct.llvm::SmallVectorStorage.134" }
%"struct.llvm::SmallVectorStorage.134" = type { [24 x i8] }
%"class.std::vector.135" = type { %"struct.std::_Vector_base.136" }
%"struct.std::_Vector_base.136" = type { %"struct.std::_Vector_base<unsigned long, std::allocator<unsigned long>>::_Vector_impl" }
%"struct.std::_Vector_base<unsigned long, std::allocator<unsigned long>>::_Vector_impl" = type { %"struct.std::_Vector_base<unsigned long, std::allocator<unsigned long>>::_Vector_impl_data" }
%"struct.std::_Vector_base<unsigned long, std::allocator<unsigned long>>::_Vector_impl_data" = type { ptr, ptr, ptr }
%"class.std::vector.140" = type { %"struct.std::_Vector_base.141" }
%"struct.std::_Vector_base.141" = type { %"struct.std::_Vector_base<std::pair<llvm::SmallVector<clang::Token, 1>, unsigned long>, std::allocator<std::pair<llvm::SmallVector<clang::Token, 1>, unsigned long>>>::_Vector_impl" }
%"struct.std::_Vector_base<std::pair<llvm::SmallVector<clang::Token, 1>, unsigned long>, std::allocator<std::pair<llvm::SmallVector<clang::Token, 1>, unsigned long>>>::_Vector_impl" = type { %"struct.std::_Vector_base<std::pair<llvm::SmallVector<clang::Token, 1>, unsigned long>, std::allocator<std::pair<llvm::SmallVector<clang::Token, 1>, unsigned long>>>::_Vector_impl_data" }
%"struct.std::_Vector_base<std::pair<llvm::SmallVector<clang::Token, 1>, unsigned long>, std::allocator<std::pair<llvm::SmallVector<clang::Token, 1>, unsigned long>>>::_Vector_impl_data" = type { ptr, ptr, ptr }
%"class.llvm::DenseMap.145" = type <{ ptr, i32, i32, i32, [4 x i8] }>
%"class.llvm::DenseMap.148" = type <{ ptr, i32, i32, i32, [4 x i8] }>
%"class.clang::SourceLocation" = type { i32 }
%"class.llvm::SmallVector.151" = type { %"class.llvm::SmallVectorImpl.152", %"struct.llvm::SmallVectorStorage.155" }
%"class.llvm::SmallVectorImpl.152" = type { %"class.llvm::SmallVectorTemplateBase.153" }
%"class.llvm::SmallVectorTemplateBase.153" = type { %"class.llvm::SmallVectorTemplateCommon.154" }
%"class.llvm::SmallVectorTemplateCommon.154" = type { %"class.llvm::SmallVectorBase" }
%"struct.llvm::SmallVectorStorage.155" = type { [128 x i8] }
%struct.anon = type { %"class.llvm::DenseMap.156" }
%"class.llvm::DenseMap.156" = type <{ ptr, i32, i32, i32, [4 x i8] }>
%"class.__gnu_cxx::__normal_iterator.251" = type { ptr }

; Function Attrs: mustprogress nounwind uwtable
define linkonce_odr hidden void @_ZN9__gnu_cxx17__normal_iteratorIPmSt6vectorImSaImEEEC2ERKS1_(ptr noundef nonnull align 8 dereferenceable(8) %0, ptr noundef nonnull align 8 dereferenceable(8) %1) unnamed_addr #0 comdat align 2 {
  %3 = alloca ptr, align 8
  %4 = alloca ptr, align 8
  store ptr %0, ptr %3, align 8
  store ptr %1, ptr %4, align 8
  %5 = load ptr, ptr %3, align 8
  %6 = getelementptr inbounds nuw %"class.__gnu_cxx::__normal_iterator.251", ptr %5, i32 0, i32 0
  %7 = load ptr, ptr %4, align 8
  %8 = load ptr, ptr %7, align 8
  store ptr %8, ptr %6, align 8
  ret void
}

; Function Attrs: mustprogress nounwind uwtable
define linkonce_odr hidden noundef nonnull align 8 dereferenceable(8) ptr @_ZNK9__gnu_cxx17__normal_iteratorIPmSt6vectorImSaImEEEdeEv(ptr noundef nonnull align 8 dereferenceable(8) %0) #0 comdat align 2 {
  %2 = alloca ptr, align 8
  store ptr %0, ptr %2, align 8
  %3 = load ptr, ptr %2, align 8
  %4 = getelementptr inbounds nuw %"class.__gnu_cxx::__normal_iterator.251", ptr %3, i32 0, i32 0
  %5 = load ptr, ptr %4, align 8
  ret ptr %5
}

; Function Attrs: mustprogress nounwind uwtable
define linkonce_odr hidden ptr @_ZNK9__gnu_cxx17__normal_iteratorIPmSt6vectorImSaImEEEmiEl(ptr noundef nonnull align 8 dereferenceable(8) %0, i64 noundef %1) #0 comdat align 2 {
  %3 = alloca %"class.__gnu_cxx::__normal_iterator.251", align 8
  %4 = alloca ptr, align 8
  %5 = alloca i64, align 8
  %6 = alloca ptr, align 8
  store ptr %0, ptr %4, align 8
  store i64 %1, ptr %5, align 8
  %7 = load ptr, ptr %4, align 8
  %8 = getelementptr inbounds nuw %"class.__gnu_cxx::__normal_iterator.251", ptr %7, i32 0, i32 0
  %9 = load ptr, ptr %8, align 8
  %10 = load i64, ptr %5, align 8
  %11 = sub i64 0, %10
  %12 = getelementptr inbounds i64, ptr %9, i64 %11
  store ptr %12, ptr %6, align 8
  call void @_ZN9__gnu_cxx17__normal_iteratorIPmSt6vectorImSaImEEEC2ERKS1_(ptr noundef nonnull align 8 dereferenceable(8) %3, ptr noundef nonnull align 8 dereferenceable(8) %6) #8
  %13 = getelementptr inbounds nuw %"class.__gnu_cxx::__normal_iterator.251", ptr %3, i32 0, i32 0
  %14 = load ptr, ptr %13, align 8
  ret ptr %14
}

; Function Attrs: mustprogress nounwind uwtable
define linkonce_odr hidden ptr @_ZNSt6vectorImSaImEE3endEv(ptr noundef nonnull align 8 dereferenceable(24) %0) #0 comdat align 2 {
  %2 = alloca %"class.__gnu_cxx::__normal_iterator.251", align 8
  %3 = alloca ptr, align 8
  store ptr %0, ptr %3, align 8
  %4 = load ptr, ptr %3, align 8
  %5 = getelementptr inbounds nuw %"struct.std::_Vector_base.136", ptr %4, i32 0, i32 0
  %6 = getelementptr inbounds nuw %"struct.std::_Vector_base<unsigned long, std::allocator<unsigned long>>::_Vector_impl_data", ptr %5, i32 0, i32 1
  call void @_ZN9__gnu_cxx17__normal_iteratorIPmSt6vectorImSaImEEEC2ERKS1_(ptr noundef nonnull align 8 dereferenceable(8) %2, ptr noundef nonnull align 8 dereferenceable(8) %6) #8
  %7 = getelementptr inbounds nuw %"class.__gnu_cxx::__normal_iterator.251", ptr %2, i32 0, i32 0
  %8 = load ptr, ptr %7, align 8
  ret ptr %8
}

; Function Attrs: mustprogress nounwind uwtable
define linkonce_odr hidden void @_ZNSt4pairImbEC2ImRbTnNSt9enable_ifIXaaclsr5_PCCPE22_MoveConstructiblePairIT_T0_EEclsr5_PCCPE30_ImplicitlyMoveConvertiblePairIS4_S5_EEEbE4typeELb1EEEOS4_OS5_(ptr noundef nonnull align 8 dereferenceable(9) %0, ptr noundef nonnull align 8 dereferenceable(8) %1, ptr noundef nonnull align 1 dereferenceable(1) %2) unnamed_addr #0 comdat align 2 {
  %4 = alloca ptr, align 8
  %5 = alloca ptr, align 8
  %6 = alloca ptr, align 8
  store ptr %0, ptr %4, align 8
  store ptr %1, ptr %5, align 8
  store ptr %2, ptr %6, align 8
  %7 = load ptr, ptr %4, align 8
  %8 = getelementptr inbounds nuw %"struct.std::pair", ptr %7, i32 0, i32 0
  %9 = load ptr, ptr %5, align 8
  %10 = load i64, ptr %9, align 8
  store i64 %10, ptr %8, align 8
  %11 = getelementptr inbounds nuw %"struct.std::pair", ptr %7, i32 0, i32 1
  %12 = load ptr, ptr %6, align 8
  %13 = load i8, ptr %12, align 1
  %14 = trunc i8 %13 to i1
  %15 = zext i1 %14 to i8
  store i8 %15, ptr %11, align 8
  ret void
}

; Function Attrs: mustprogress nounwind uwtable
define linkonce_odr hidden noundef nonnull align 8 dereferenceable(8) ptr @_ZNSt6vectorImSaImEE4backEv(ptr noundef nonnull align 8 dereferenceable(24) %0) #0 comdat align 2 {
  %2 = alloca ptr, align 8
  %3 = alloca %"class.__gnu_cxx::__normal_iterator.251", align 8
  %4 = alloca %"class.__gnu_cxx::__normal_iterator.251", align 8
  store ptr %0, ptr %2, align 8
  %5 = load ptr, ptr %2, align 8
  %6 = call ptr @_ZNSt6vectorImSaImEE3endEv(ptr noundef nonnull align 8 dereferenceable(24) %5) #8
  %7 = getelementptr inbounds nuw %"class.__gnu_cxx::__normal_iterator.251", ptr %4, i32 0, i32 0
  store ptr %6, ptr %7, align 8
  %8 = call ptr @_ZNK9__gnu_cxx17__normal_iteratorIPmSt6vectorImSaImEEEmiEl(ptr noundef nonnull align 8 dereferenceable(8) %4, i64 noundef 1) #8
  %9 = getelementptr inbounds nuw %"class.__gnu_cxx::__normal_iterator.251", ptr %3, i32 0, i32 0
  store ptr %8, ptr %9, align 8
  %10 = call noundef nonnull align 8 dereferenceable(8) ptr @_ZNK9__gnu_cxx17__normal_iteratorIPmSt6vectorImSaImEEEdeEv(ptr noundef nonnull align 8 dereferenceable(8) %3) #8
  ret ptr %10
}

; Function Attrs: mustprogress nounwind uwtable
define dso_local { i64, i8 } @_ZN5clang12Preprocessor16LastBacktrackPosEv(ptr noundef nonnull align 8 dereferenceable(3288) %0) #0 align 2 {
  %2 = alloca %"struct.std::pair", align 8
  %3 = alloca ptr, align 8
  %4 = alloca i64, align 8
  %5 = alloca i8, align 1
  %6 = alloca i64, align 8
  store ptr %0, ptr %3, align 8
  %7 = load ptr, ptr %3, align 8
  %8 = getelementptr inbounds nuw %"class.clang::Preprocessor", ptr %7, i32 0, i32 150
  %9 = call noundef nonnull align 8 dereferenceable(8) ptr @_ZNSt6vectorImSaImEE4backEv(ptr noundef nonnull align 8 dereferenceable(24) %8) #8
  %10 = load i64, ptr %9, align 8
  store i64 %10, ptr %4, align 8
  %11 = load i64, ptr %4, align 8
  %12 = icmp slt i64 %11, 0
  %13 = zext i1 %12 to i8
  store i8 %13, ptr %5, align 1
  %14 = load i8, ptr %5, align 1
  %15 = trunc i8 %14 to i1
  br i1 %15, label %16, label %19

16:                                               ; preds = %1
  %17 = load i64, ptr %4, align 8
  %18 = xor i64 %17, -1
  br label %21

19:                                               ; preds = %1
  %20 = load i64, ptr %4, align 8
  br label %21

21:                                               ; preds = %19, %16
  %22 = phi i64 [ %18, %16 ], [ %20, %19 ]
  store i64 %22, ptr %6, align 8
  call void @_ZNSt4pairImbEC2ImRbTnNSt9enable_ifIXaaclsr5_PCCPE22_MoveConstructiblePairIT_T0_EEclsr5_PCCPE30_ImplicitlyMoveConvertiblePairIS4_S5_EEEbE4typeELb1EEEOS4_OS5_(ptr noundef nonnull align 8 dereferenceable(9) %2, ptr noundef nonnull align 8 dereferenceable(8) %6, ptr noundef nonnull align 1 dereferenceable(1) %5)
  %23 = load { i64, i8 }, ptr %2, align 8
  ret { i64, i8 } %23
}