; Function Attrs: mustprogress nofree norecurse nosync nounwind willreturn memory(read, inaccessiblemem: none) uwtable
define dso_local { i64, i8 } @_ZN5clang12Preprocessor16LastBacktrackPosEv(ptr nocapture noundef nonnull readonly align 8 dereferenceable(3288) %0) local_unnamed_addr #0 align 2 {
  %2 = getelementptr inbounds i8, ptr %0, i64 2944
  %3 = load ptr, ptr %2, align 8
  %4 = getelementptr inbounds i8, ptr %3, i64 -8
  %5 = load i64, ptr %4, align 8
  %.lobit = lshr i64 %5, 63
  %6 = trunc nuw nsw i64 %.lobit to i8
  %.lobit3 = ashr i64 %5, 63
  %7 = xor i64 %.lobit3, %5
  %.fca.0.insert = insertvalue { i64, i8 } poison, i64 %7, 0
  %.fca.1.insert = insertvalue { i64, i8 } %.fca.0.insert, i8 %6, 1
  ret { i64, i8 } %.fca.1.insert
}